target datalayout = "e-m:e-p270:32:32-p271:32:32-p272:64:64-i64:64-i128:128-f80:128-n8:16:32:64-S128"
target triple = "x86_64-pc-linux-gnu"

%"class.std::__cxx11::basic_string" = type { %"struct.std::__cxx11::basic_string<char>::_Alloc_hider", i64, %union.anon }
%"struct.std::__cxx11::basic_string<char>::_Alloc_hider" = type { ptr }
%union.anon = type { i64, [8 x i8] }
%"class.std::allocator" = type { i8 }

@.str = private unnamed_addr constant [64 x i8] c"Method SimpleBlobDetector::getBlobContours() is not implemented\00", align 1
@__func__._ZNK2cv18SimpleBlobDetector15getBlobContoursEv = private unnamed_addr constant [16 x i8] c"getBlobContours\00", align 1
@.str.1 = private unnamed_addr constant [131 x i8] c"generated/home/dtcxzyw/WorkSpace/Projects/compilers/llvm-opt-benchmark/bench/opencv/opencv/modules/features2d/src/blobdetector.cpp\00", align 1

; Function Attrs: mustprogress uwtable
define noundef nonnull align 8 dereferenceable(24) ptr @_ZNK2cv18SimpleBlobDetector15getBlobContoursEv(ptr noundef nonnull align 8 dereferenceable(8) %0) unnamed_addr #4 align 2 personality ptr @__gxx_personality_v0 {
  %2 = alloca ptr, align 8
  %3 = alloca %"class.std::__cxx11::basic_string", align 8
  %4 = alloca %"class.std::allocator", align 1
  %5 = alloca ptr, align 8
  %6 = alloca i32, align 4
  store ptr %0, ptr %2, align 8
  call void @_ZNSaIcEC1Ev(ptr noundef nonnull align 1 dereferenceable(1) %4) #3
  invoke void @_ZNSt7__cxx1112basic_stringIcSt11char_traitsIcESaIcEEC1EPKcRKS3_(ptr noundef nonnull align 8 dereferenceable(32) %3, ptr noundef @.str, ptr noundef nonnull align 1 dereferenceable(1) %4)
          to label %7 unwind label %9

7:                                                ; preds = %1
  invoke void @_ZN2cv5errorEiRKNSt7__cxx1112basic_stringIcSt11char_traitsIcESaIcEEEPKcS9_i(i32 noundef -213, ptr noundef nonnull align 8 dereferenceable(32) %3, ptr noundef @__func__._ZNK2cv18SimpleBlobDetector15getBlobContoursEv, ptr noundef @.str.1, i32 noundef 62) #18
          to label %8 unwind label %13

8:                                                ; preds = %7
  unreachable

9:                                                ; preds = %1
  %10 = landingpad { ptr, i32 }
          cleanup
  %11 = extractvalue { ptr, i32 } %10, 0
  store ptr %11, ptr %5, align 8
  %12 = extractvalue { ptr, i32 } %10, 1
  store i32 %12, ptr %6, align 4
  br label %17

13:                                               ; preds = %7
  %14 = landingpad { ptr, i32 }
          cleanup
  %15 = extractvalue { ptr, i32 } %14, 0
  store ptr %15, ptr %5, align 8
  %16 = extractvalue { ptr, i32 } %14, 1
  store i32 %16, ptr %6, align 4
  call void @_ZNSt7__cxx1112basic_stringIcSt11char_traitsIcESaIcEED1Ev(ptr noundef nonnull align 8 dereferenceable(32) %3) #3
  br label %17

17:                                               ; preds = %13, %9
  call void @_ZNSaIcED1Ev(ptr noundef nonnull align 1 dereferenceable(1) %4) #3
  br label %18

18:                                               ; preds = %17
  %19 = load ptr, ptr %5, align 8
  %20 = load i32, ptr %6, align 4
  %21 = insertvalue { ptr, i32 } poison, ptr %19, 0
  %22 = insertvalue { ptr, i32 } %21, i32 %20, 1
  resume { ptr, i32 } %22
}